target datalayout = "e-m:e-p270:32:32-p271:32:32-p272:64:64-i64:64-i128:128-f80:128-n8:16:32:64-S128"
target triple = "x86_64-pc-linux-gnu"

%struct.ec_group_st = type { ptr, ptr, ptr, ptr, i32, i32, i32, i32, ptr, i64, ptr, [6 x i32], ptr, ptr, i32, ptr, ptr, ptr, ptr, i32, %union.anon, ptr, ptr }
%union.anon = type { ptr }
%struct.ec_method_st = type { i32, i32, ptr, ptr, ptr, ptr, ptr, ptr, ptr, ptr, ptr, ptr, ptr, ptr, ptr, ptr, ptr, ptr, ptr, ptr, ptr, ptr, ptr, ptr, ptr, ptr, ptr, ptr, ptr, ptr, ptr, ptr, ptr, ptr, ptr, ptr, ptr, ptr, ptr, ptr, ptr, ptr, ptr, ptr, ptr, ptr, ptr, ptr, ptr, ptr, ptr, ptr, ptr, ptr, ptr, ptr, ptr }

@.str = private unnamed_addr constant [31 x i8] c"../openssl/crypto/ec/ec2_oct.c\00", align 1
@__func__.ossl_ec_GF2m_simple_set_compressed_coordinates = private unnamed_addr constant [47 x i8] c"ossl_ec_GF2m_simple_set_compressed_coordinates\00", align 1

; Function Attrs: inlinehint nounwind uwtable
define internal i32 @ERR_GET_REASON(i64 noundef %0) #3 {
  %2 = alloca i32, align 4
  %3 = alloca i64, align 8
  store i64 %0, ptr %3, align 8, !tbaa !28
  %4 = load i64, ptr %3, align 8, !tbaa !28
  %5 = and i64 %4, 2147483648
  %6 = icmp ne i64 %5, 0
  br i1 %6, label %7, label %11

7:                                                ; preds = %1
  %8 = load i64, ptr %3, align 8, !tbaa !28
  %9 = and i64 %8, 2147483647
  %10 = trunc i64 %9 to i32
  store i32 %10, ptr %2, align 4
  br label %15

11:                                               ; preds = %1
  %12 = load i64, ptr %3, align 8, !tbaa !28
  %13 = and i64 %12, 8388607
  %14 = trunc i64 %13 to i32
  store i32 %14, ptr %2, align 4
  br label %15

15:                                               ; preds = %11, %7
  %16 = load i32, ptr %2, align 4
  ret i32 %16
}

; Function Attrs: inlinehint nounwind uwtable
define internal i32 @ERR_GET_LIB(i64 noundef %0) #3 {
  %2 = alloca i32, align 4
  %3 = alloca i64, align 8
  store i64 %0, ptr %3, align 8, !tbaa !28
  %4 = load i64, ptr %3, align 8, !tbaa !28
  %5 = and i64 %4, 2147483648
  %6 = icmp ne i64 %5, 0
  br i1 %6, label %7, label %8

7:                                                ; preds = %1
  store i32 2, ptr %2, align 4
  br label %13

8:                                                ; preds = %1
  %9 = load i64, ptr %3, align 8, !tbaa !28
  %10 = lshr i64 %9, 23
  %11 = and i64 %10, 255
  %12 = trunc i64 %11 to i32
  store i32 %12, ptr %2, align 4
  br label %13

13:                                               ; preds = %8, %7
  %14 = load i32, ptr %2, align 4
  ret i32 %14
}

; Function Attrs: nounwind uwtable
define i32 @ossl_ec_GF2m_simple_set_compressed_coordinates(ptr noundef %0, ptr noundef %1, ptr noundef %2, i32 noundef %3, ptr noundef %4) #0 {
  %6 = alloca i32, align 4
  %7 = alloca ptr, align 8
  %8 = alloca ptr, align 8
  %9 = alloca ptr, align 8
  %10 = alloca i32, align 4
  %11 = alloca ptr, align 8
  %12 = alloca ptr, align 8
  %13 = alloca ptr, align 8
  %14 = alloca ptr, align 8
  %15 = alloca ptr, align 8
  %16 = alloca i32, align 4
  %17 = alloca i32, align 4
  %18 = alloca ptr, align 8
  %19 = alloca i32, align 4
  %20 = alloca i64, align 8
  store ptr %0, ptr %7, align 8, !tbaa !3
  store ptr %1, ptr %8, align 8, !tbaa !8
  store ptr %2, ptr %9, align 8, !tbaa !10
  store i32 %3, ptr %10, align 4, !tbaa !12
  store ptr %4, ptr %11, align 8, !tbaa !14
  call void @llvm.lifetime.start.p0(i64 8, ptr %12) #4
  call void @llvm.lifetime.start.p0(i64 8, ptr %13) #4
  call void @llvm.lifetime.start.p0(i64 8, ptr %14) #4
  call void @llvm.lifetime.start.p0(i64 8, ptr %15) #4
  call void @llvm.lifetime.start.p0(i64 4, ptr %16) #4
  store i32 0, ptr %16, align 4, !tbaa !12
  call void @llvm.lifetime.start.p0(i64 4, ptr %17) #4
  call void @llvm.lifetime.start.p0(i64 8, ptr %18) #4
  store ptr null, ptr %18, align 8, !tbaa !14
  %21 = load ptr, ptr %11, align 8, !tbaa !14
  %22 = icmp eq ptr %21, null
  br i1 %22, label %23, label %29

23:                                               ; preds = %5
  %24 = call ptr @BN_CTX_new()
  store ptr %24, ptr %18, align 8, !tbaa !14
  store ptr %24, ptr %11, align 8, !tbaa !14
  %25 = load ptr, ptr %11, align 8, !tbaa !14
  %26 = icmp eq ptr %25, null
  br i1 %26, label %27, label %28

27:                                               ; preds = %23
  store i32 0, ptr %6, align 4
  store i32 1, ptr %19, align 4
  br label %187

28:                                               ; preds = %23
  br label %29

29:                                               ; preds = %28, %5
  %30 = load i32, ptr %10, align 4, !tbaa !12
  %31 = icmp ne i32 %30, 0
  %32 = select i1 %31, i32 1, i32 0
  store i32 %32, ptr %10, align 4, !tbaa !12
  %33 = load ptr, ptr %11, align 8, !tbaa !14
  call void @BN_CTX_start(ptr noundef %33)
  %34 = load ptr, ptr %11, align 8, !tbaa !14
  %35 = call ptr @BN_CTX_get(ptr noundef %34)
  store ptr %35, ptr %12, align 8, !tbaa !10
  %36 = load ptr, ptr %11, align 8, !tbaa !14
  %37 = call ptr @BN_CTX_get(ptr noundef %36)
  store ptr %37, ptr %13, align 8, !tbaa !10
  %38 = load ptr, ptr %11, align 8, !tbaa !14
  %39 = call ptr @BN_CTX_get(ptr noundef %38)
  store ptr %39, ptr %14, align 8, !tbaa !10
  %40 = load ptr, ptr %11, align 8, !tbaa !14
  %41 = call ptr @BN_CTX_get(ptr noundef %40)
  store ptr %41, ptr %15, align 8, !tbaa !10
  %42 = load ptr, ptr %15, align 8, !tbaa !10
  %43 = icmp eq ptr %42, null
  br i1 %43, label %44, label %45

44:                                               ; preds = %29
  br label %183

45:                                               ; preds = %29
  %46 = load ptr, ptr %13, align 8, !tbaa !10
  %47 = load ptr, ptr %9, align 8, !tbaa !10
  %48 = load ptr, ptr %7, align 8, !tbaa !3
  %49 = getelementptr inbounds nuw %struct.ec_group_st, ptr %48, i32 0, i32 11
  %50 = getelementptr inbounds [6 x i32], ptr %49, i64 0, i64 0
  %51 = call i32 @BN_GF2m_mod_arr(ptr noundef %46, ptr noundef %47, ptr noundef %50)
  %52 = icmp ne i32 %51, 0
  br i1 %52, label %54, label %53

53:                                               ; preds = %45
  br label %183

54:                                               ; preds = %45
  %55 = load ptr, ptr %13, align 8, !tbaa !10
  %56 = call i32 @BN_is_zero(ptr noundef %55)
  %57 = icmp ne i32 %56, 0
  br i1 %57, label %58, label %71

58:                                               ; preds = %54
  %59 = load ptr, ptr %14, align 8, !tbaa !10
  %60 = load ptr, ptr %7, align 8, !tbaa !3
  %61 = getelementptr inbounds nuw %struct.ec_group_st, ptr %60, i32 0, i32 13
  %62 = load ptr, ptr %61, align 8, !tbaa !16
  %63 = load ptr, ptr %7, align 8, !tbaa !3
  %64 = getelementptr inbounds nuw %struct.ec_group_st, ptr %63, i32 0, i32 11
  %65 = getelementptr inbounds [6 x i32], ptr %64, i64 0, i64 0
  %66 = load ptr, ptr %11, align 8, !tbaa !14
  %67 = call i32 @BN_GF2m_mod_sqrt_arr(ptr noundef %59, ptr noundef %62, ptr noundef %65, ptr noundef %66)
  %68 = icmp ne i32 %67, 0
  br i1 %68, label %70, label %69

69:                                               ; preds = %58
  br label %183

70:                                               ; preds = %58
  br label %173

71:                                               ; preds = %54
  %72 = load ptr, ptr %7, align 8, !tbaa !3
  %73 = getelementptr inbounds nuw %struct.ec_group_st, ptr %72, i32 0, i32 0
  %74 = load ptr, ptr %73, align 8, !tbaa !23
  %75 = getelementptr inbounds nuw %struct.ec_method_st, ptr %74, i32 0, i32 33
  %76 = load ptr, ptr %75, align 8, !tbaa !24
  %77 = load ptr, ptr %7, align 8, !tbaa !3
  %78 = load ptr, ptr %12, align 8, !tbaa !10
  %79 = load ptr, ptr %13, align 8, !tbaa !10
  %80 = load ptr, ptr %11, align 8, !tbaa !14
  %81 = call i32 %76(ptr noundef %77, ptr noundef %78, ptr noundef %79, ptr noundef %80)
  %82 = icmp ne i32 %81, 0
  br i1 %82, label %84, label %83

83:                                               ; preds = %71
  br label %183

84:                                               ; preds = %71
  %85 = load ptr, ptr %7, align 8, !tbaa !3
  %86 = getelementptr inbounds nuw %struct.ec_group_st, ptr %85, i32 0, i32 0
  %87 = load ptr, ptr %86, align 8, !tbaa !23
  %88 = getelementptr inbounds nuw %struct.ec_method_st, ptr %87, i32 0, i32 34
  %89 = load ptr, ptr %88, align 8, !tbaa !26
  %90 = load ptr, ptr %7, align 8, !tbaa !3
  %91 = load ptr, ptr %12, align 8, !tbaa !10
  %92 = load ptr, ptr %7, align 8, !tbaa !3
  %93 = getelementptr inbounds nuw %struct.ec_group_st, ptr %92, i32 0, i32 13
  %94 = load ptr, ptr %93, align 8, !tbaa !16
  %95 = load ptr, ptr %12, align 8, !tbaa !10
  %96 = load ptr, ptr %11, align 8, !tbaa !14
  %97 = call i32 %89(ptr noundef %90, ptr noundef %91, ptr noundef %94, ptr noundef %95, ptr noundef %96)
  %98 = icmp ne i32 %97, 0
  br i1 %98, label %100, label %99

99:                                               ; preds = %84
  br label %183

100:                                              ; preds = %84
  %101 = load ptr, ptr %12, align 8, !tbaa !10
  %102 = load ptr, ptr %7, align 8, !tbaa !3
  %103 = getelementptr inbounds nuw %struct.ec_group_st, ptr %102, i32 0, i32 12
  %104 = load ptr, ptr %103, align 8, !tbaa !27
  %105 = load ptr, ptr %12, align 8, !tbaa !10
  %106 = call i32 @BN_GF2m_add(ptr noundef %101, ptr noundef %104, ptr noundef %105)
  %107 = icmp ne i32 %106, 0
  br i1 %107, label %109, label %108

108:                                              ; preds = %100
  br label %183

109:                                              ; preds = %100
  %110 = load ptr, ptr %12, align 8, !tbaa !10
  %111 = load ptr, ptr %13, align 8, !tbaa !10
  %112 = load ptr, ptr %12, align 8, !tbaa !10
  %113 = call i32 @BN_GF2m_add(ptr noundef %110, ptr noundef %111, ptr noundef %112)
  %114 = icmp ne i32 %113, 0
  br i1 %114, label %116, label %115

115:                                              ; preds = %109
  br label %183

116:                                              ; preds = %109
  %117 = call i32 @ERR_set_mark()
  %118 = load ptr, ptr %15, align 8, !tbaa !10
  %119 = load ptr, ptr %12, align 8, !tbaa !10
  %120 = load ptr, ptr %7, align 8, !tbaa !3
  %121 = getelementptr inbounds nuw %struct.ec_group_st, ptr %120, i32 0, i32 11
  %122 = getelementptr inbounds [6 x i32], ptr %121, i64 0, i64 0
  %123 = load ptr, ptr %11, align 8, !tbaa !14
  %124 = call i32 @BN_GF2m_mod_solve_quad_arr(ptr noundef %118, ptr noundef %119, ptr noundef %122, ptr noundef %123)
  %125 = icmp ne i32 %124, 0
  br i1 %125, label %141, label %126

126:                                              ; preds = %116
  call void @llvm.lifetime.start.p0(i64 8, ptr %20) #4
  %127 = call i64 @ERR_peek_last_error()
  store i64 %127, ptr %20, align 8, !tbaa !28
  %128 = load i64, ptr %20, align 8, !tbaa !28
  %129 = call i32 @ERR_GET_LIB(i64 noundef %128)
  %130 = icmp eq i32 %129, 3
  br i1 %130, label %131, label %137

131:                                              ; preds = %126
  %132 = load i64, ptr %20, align 8, !tbaa !28
  %133 = call i32 @ERR_GET_REASON(i64 noundef %132)
  %134 = icmp eq i32 %133, 116
  br i1 %134, label %135, label %137

135:                                              ; preds = %131
  %136 = call i32 @ERR_pop_to_mark()
  call void @ERR_new()
  call void @ERR_set_debug(ptr noundef @.str, i32 noundef 88, ptr noundef @__func__.ossl_ec_GF2m_simple_set_compressed_coordinates)
  call void (i32, i32, ptr, ...) @ERR_set_error(i32 noundef 16, i32 noundef 110, ptr noundef null)
  br label %139

137:                                              ; preds = %131, %126
  %138 = call i32 @ERR_clear_last_mark()
  call void @ERR_new()
  call void @ERR_set_debug(ptr noundef @.str, i32 noundef 93, ptr noundef @__func__.ossl_ec_GF2m_simple_set_compressed_coordinates)
  call void (i32, i32, ptr, ...) @ERR_set_error(i32 noundef 16, i32 noundef 524291, ptr noundef null)
  br label %139

139:                                              ; preds = %137, %135
  store i32 2, ptr %19, align 4
  call void @llvm.lifetime.end.p0(i64 8, ptr %20) #4
  %140 = load i32, ptr %19, align 4
  switch i32 %140, label %187 [
    i32 2, label %183
  ]

141:                                              ; preds = %116
  %142 = call i32 @ERR_clear_last_mark()
  %143 = load ptr, ptr %15, align 8, !tbaa !10
  %144 = call i32 @BN_is_odd(ptr noundef %143)
  %145 = icmp ne i32 %144, 0
  %146 = select i1 %145, i32 1, i32 0
  store i32 %146, ptr %17, align 4, !tbaa !12
  %147 = load ptr, ptr %7, align 8, !tbaa !3
  %148 = getelementptr inbounds nuw %struct.ec_group_st, ptr %147, i32 0, i32 0
  %149 = load ptr, ptr %148, align 8, !tbaa !23
  %150 = getelementptr inbounds nuw %struct.ec_method_st, ptr %149, i32 0, i32 32
  %151 = load ptr, ptr %150, align 8, !tbaa !29
  %152 = load ptr, ptr %7, align 8, !tbaa !3
  %153 = load ptr, ptr %14, align 8, !tbaa !10
  %154 = load ptr, ptr %13, align 8, !tbaa !10
  %155 = load ptr, ptr %15, align 8, !tbaa !10
  %156 = load ptr, ptr %11, align 8, !tbaa !14
  %157 = call i32 %151(ptr noundef %152, ptr noundef %153, ptr noundef %154, ptr noundef %155, ptr noundef %156)
  %158 = icmp ne i32 %157, 0
  br i1 %158, label %160, label %159

159:                                              ; preds = %141
  br label %183

160:                                              ; preds = %141
  %161 = load i32, ptr %17, align 4, !tbaa !12
  %162 = load i32, ptr %10, align 4, !tbaa !12
  %163 = icmp ne i32 %161, %162
  br i1 %163, label %164, label %172

164:                                              ; preds = %160
  %165 = load ptr, ptr %14, align 8, !tbaa !10
  %166 = load ptr, ptr %14, align 8, !tbaa !10
  %167 = load ptr, ptr %13, align 8, !tbaa !10
  %168 = call i32 @BN_GF2m_add(ptr noundef %165, ptr noundef %166, ptr noundef %167)
  %169 = icmp ne i32 %168, 0
  br i1 %169, label %171, label %170

170:                                              ; preds = %164
  br label %183

171:                                              ; preds = %164
  br label %172

172:                                              ; preds = %171, %160
  br label %173

173:                                              ; preds = %172, %70
  %174 = load ptr, ptr %7, align 8, !tbaa !3
  %175 = load ptr, ptr %8, align 8, !tbaa !8
  %176 = load ptr, ptr %13, align 8, !tbaa !10
  %177 = load ptr, ptr %14, align 8, !tbaa !10
  %178 = load ptr, ptr %11, align 8, !tbaa !14
  %179 = call i32 @EC_POINT_set_affine_coordinates(ptr noundef %174, ptr noundef %175, ptr noundef %176, ptr noundef %177, ptr noundef %178)
  %180 = icmp ne i32 %179, 0
  br i1 %180, label %182, label %181

181:                                              ; preds = %173
  br label %183

182:                                              ; preds = %173
  store i32 1, ptr %16, align 4, !tbaa !12
  br label %183

183:                                              ; preds = %182, %139, %181, %170, %159, %115, %108, %99, %83, %69, %53, %44
  %184 = load ptr, ptr %11, align 8, !tbaa !14
  call void @BN_CTX_end(ptr noundef %184)
  %185 = load ptr, ptr %18, align 8, !tbaa !14
  call void @BN_CTX_free(ptr noundef %185)
  %186 = load i32, ptr %16, align 4, !tbaa !12
  store i32 %186, ptr %6, align 4
  store i32 1, ptr %19, align 4
  br label %187

187:                                              ; preds = %183, %139, %27
  call void @llvm.lifetime.end.p0(i64 8, ptr %18) #4
  call void @llvm.lifetime.end.p0(i64 4, ptr %17) #4
  call void @llvm.lifetime.end.p0(i64 4, ptr %16) #4
  call void @llvm.lifetime.end.p0(i64 8, ptr %15) #4
  call void @llvm.lifetime.end.p0(i64 8, ptr %14) #4
  call void @llvm.lifetime.end.p0(i64 8, ptr %13) #4
  call void @llvm.lifetime.end.p0(i64 8, ptr %12) #4
  %188 = load i32, ptr %6, align 4
  ret i32 %188
}