; Function Attrs: nounwind uwtable
define range(i32 0, 2) i32 @ossl_ec_GF2m_simple_set_compressed_coordinates(ptr noundef %0, ptr noundef %1, ptr noundef %2, i32 noundef %3, ptr noundef %4) local_unnamed_addr #0 {
  %6 = icmp eq ptr %4, null
  br i1 %6, label %7, label %10

7:                                                ; preds = %5
  %8 = tail call ptr @BN_CTX_new() #3
  %9 = icmp eq ptr %8, null
  br i1 %9, label %67, label %10

10:                                               ; preds = %7, %5
  %.063 = phi ptr [ %8, %7 ], [ %4, %5 ]
  %.061 = phi ptr [ %8, %7 ], [ null, %5 ]
  tail call void @BN_CTX_start(ptr noundef nonnull %.063) #3
  %11 = tail call ptr @BN_CTX_get(ptr noundef nonnull %.063) #3
  %12 = tail call ptr @BN_CTX_get(ptr noundef nonnull %.063) #3
  %13 = tail call ptr @BN_CTX_get(ptr noundef nonnull %.063) #3
  %14 = tail call ptr @BN_CTX_get(ptr noundef nonnull %.063) #3
  %15 = icmp eq ptr %14, null
  br i1 %15, label %66, label %16

16:                                               ; preds = %10
  %17 = getelementptr inbounds nuw i8, ptr %0, i64 72
  %18 = tail call i32 @BN_GF2m_mod_arr(ptr noundef %12, ptr noundef %2, ptr noundef nonnull %17) #3
  %.not67 = icmp eq i32 %18, 0
  br i1 %.not67, label %66, label %19

19:                                               ; preds = %16
  %20 = tail call i32 @BN_is_zero(ptr noundef %12) #3
  %.not68 = icmp eq i32 %20, 0
  br i1 %.not68, label %25, label %21

21:                                               ; preds = %19
  %22 = getelementptr inbounds nuw i8, ptr %0, i64 104
  %23 = load ptr, ptr %22, align 8, !tbaa !3
  %24 = tail call i32 @BN_GF2m_mod_sqrt_arr(ptr noundef %13, ptr noundef %23, ptr noundef nonnull %17, ptr noundef nonnull %.063) #3
  %.not77 = icmp eq i32 %24, 0
  br i1 %.not77, label %66, label %64

25:                                               ; preds = %19
  %26 = load ptr, ptr %0, align 8, !tbaa !16
  %27 = getelementptr inbounds nuw i8, ptr %26, i64 256
  %28 = load ptr, ptr %27, align 8, !tbaa !17
  %29 = tail call i32 %28(ptr noundef nonnull %0, ptr noundef %11, ptr noundef %12, ptr noundef nonnull %.063) #3
  %.not69 = icmp eq i32 %29, 0
  br i1 %.not69, label %66, label %30

30:                                               ; preds = %25
  %31 = load ptr, ptr %0, align 8, !tbaa !16
  %32 = getelementptr inbounds nuw i8, ptr %31, i64 264
  %33 = load ptr, ptr %32, align 8, !tbaa !19
  %34 = getelementptr inbounds nuw i8, ptr %0, i64 104
  %35 = load ptr, ptr %34, align 8, !tbaa !3
  %36 = tail call i32 %33(ptr noundef nonnull %0, ptr noundef %11, ptr noundef %35, ptr noundef %11, ptr noundef nonnull %.063) #3
  %.not70 = icmp eq i32 %36, 0
  br i1 %.not70, label %66, label %37

37:                                               ; preds = %30
  %38 = getelementptr inbounds nuw i8, ptr %0, i64 96
  %39 = load ptr, ptr %38, align 8, !tbaa !20
  %40 = tail call i32 @BN_GF2m_add(ptr noundef %11, ptr noundef %39, ptr noundef %11) #3
  %.not71 = icmp eq i32 %40, 0
  br i1 %.not71, label %66, label %41

41:                                               ; preds = %37
  %42 = tail call i32 @BN_GF2m_add(ptr noundef %11, ptr noundef %12, ptr noundef %11) #3
  %.not72 = icmp eq i32 %42, 0
  br i1 %.not72, label %66, label %43

43:                                               ; preds = %41
  %44 = tail call i32 @ERR_set_mark() #3
  %45 = tail call i32 @BN_GF2m_mod_solve_quad_arr(ptr noundef nonnull %14, ptr noundef %11, ptr noundef nonnull %17, ptr noundef nonnull %.063) #3
  %.not73 = icmp eq i32 %45, 0
  br i1 %.not73, label %46, label %53

46:                                               ; preds = %43
  %47 = tail call i64 @ERR_peek_last_error() #3
  %48 = and i64 %47, 4294967295
  %or.cond = icmp eq i64 %48, 25165940
  br i1 %or.cond, label %49, label %51

49:                                               ; preds = %46
  %50 = tail call i32 @ERR_pop_to_mark() #3
  tail call void @ERR_new() #3
  tail call void @ERR_set_debug(ptr noundef nonnull @.str, i32 noundef 88, ptr noundef nonnull @__func__.ossl_ec_GF2m_simple_set_compressed_coordinates) #3
  tail call void (i32, i32, ptr, ...) @ERR_set_error(i32 noundef 16, i32 noundef 110, ptr noundef null) #3
  br label %66

51:                                               ; preds = %46
  %52 = tail call i32 @ERR_clear_last_mark() #3
  tail call void @ERR_new() #3
  tail call void @ERR_set_debug(ptr noundef nonnull @.str, i32 noundef 93, ptr noundef nonnull @__func__.ossl_ec_GF2m_simple_set_compressed_coordinates) #3
  tail call void (i32, i32, ptr, ...) @ERR_set_error(i32 noundef 16, i32 noundef 524291, ptr noundef null) #3
  br label %66

53:                                               ; preds = %43
  %54 = tail call i32 @ERR_clear_last_mark() #3
  %55 = tail call i32 @BN_is_odd(ptr noundef nonnull %14) #3
  %56 = load ptr, ptr %0, align 8, !tbaa !16
  %57 = getelementptr inbounds nuw i8, ptr %56, i64 248
  %58 = load ptr, ptr %57, align 8, !tbaa !21
  %59 = tail call i32 %58(ptr noundef nonnull %0, ptr noundef %13, ptr noundef %12, ptr noundef nonnull %14, ptr noundef nonnull %.063) #3
  %.not75 = icmp eq i32 %59, 0
  br i1 %.not75, label %66, label %60

60:                                               ; preds = %53
  %.not74 = icmp ne i32 %55, 0
  %61 = icmp eq i32 %3, 0
  %.not76 = xor i1 %61, %.not74
  br i1 %.not76, label %64, label %62

62:                                               ; preds = %60
  %63 = tail call i32 @BN_GF2m_add(ptr noundef %13, ptr noundef %13, ptr noundef %12) #3
  %.not = icmp eq i32 %63, 0
  br i1 %.not, label %66, label %64

64:                                               ; preds = %60, %62, %21
  %65 = tail call i32 @EC_POINT_set_affine_coordinates(ptr noundef nonnull %0, ptr noundef %1, ptr noundef %12, ptr noundef %13, ptr noundef nonnull %.063) #3
  %.not78 = icmp ne i32 %65, 0
  %spec.select = zext i1 %.not78 to i32
  br label %66

66:                                               ; preds = %64, %49, %51, %62, %53, %41, %37, %30, %25, %21, %16, %10
  %.062 = phi i32 [ 0, %10 ], [ 0, %21 ], [ 0, %62 ], [ 0, %53 ], [ 0, %41 ], [ 0, %37 ], [ 0, %30 ], [ 0, %25 ], [ 0, %16 ], [ 0, %51 ], [ 0, %49 ], [ %spec.select, %64 ]
  tail call void @BN_CTX_end(ptr noundef nonnull %.063) #3
  tail call void @BN_CTX_free(ptr noundef %.061) #3
  br label %67

67:                                               ; preds = %7, %66
  %.0 = phi i32 [ %.062, %66 ], [ 0, %7 ]
  ret i32 %.0
}